target datalayout = "e-m:e-p270:32:32-p271:32:32-p272:64:64-i64:64-i128:128-f80:128-n8:16:32:64-S128"
target triple = "x86_64-unknown-linux-gnu"

%"class.icu_75::DateIntervalInfo" = type { %"class.icu_75::UObject", %"class.icu_75::UnicodeString", i8, ptr }
%"class.icu_75::UObject" = type { ptr }
%"class.icu_75::UnicodeString" = type { %"class.icu_75::Replaceable", %"union.icu_75::UnicodeString::StackBufferOrFields" }
%"class.icu_75::Replaceable" = type { %"class.icu_75::UObject" }
%"union.icu_75::UnicodeString::StackBufferOrFields" = type { %struct.anon.0, [32 x i8] }
%struct.anon.0 = type { i16, i32, i32, ptr }

@_ZN6icu_75L23gDefaultFallbackPatternE = internal constant [10 x i16] [i16 123, i16 48, i16 125, i16 32, i16 8211, i16 32, i16 123, i16 49, i16 125, i16 0], align 16
@_ZTVN6icu_757UObjectE = external unnamed_addr constant { [5 x ptr] }, align 8

; Function Attrs: mustprogress nounwind uwtable
define linkonce_odr void @_ZN6icu_757UObjectC2Ev(ptr noundef nonnull align 8 dereferenceable(8) %this) unnamed_addr #0 comdat align 2 {
entry:
  %this.addr = alloca ptr, align 8
  store ptr %this, ptr %this.addr, align 8
  %this1 = load ptr, ptr %this.addr, align 8
  store ptr getelementptr inbounds ({ [5 x ptr] }, ptr @_ZTVN6icu_757UObjectE, i32 0, i32 0, i32 2), ptr %this1, align 8
  ret void
}

; Function Attrs: mustprogress uwtable
define void @_ZN6icu_7516DateIntervalInfoC2ER10UErrorCode(ptr noundef nonnull align 8 dereferenceable(88) %this, ptr noundef nonnull align 4 dereferenceable(4) %status) unnamed_addr #1 align 2 personality ptr @__gxx_personality_v0 {
entry:
  %this.addr = alloca ptr, align 8
  %status.addr = alloca ptr, align 8
  %exn.slot = alloca ptr, align 8
  %ehselector.slot = alloca i32, align 4
  store ptr %this, ptr %this.addr, align 8
  store ptr %status, ptr %status.addr, align 8
  %this1 = load ptr, ptr %this.addr, align 8
  call void @_ZN6icu_757UObjectC2Ev(ptr noundef nonnull align 8 dereferenceable(8) %this1) #9
  store ptr getelementptr inbounds ({ [7 x ptr] }, ptr @_ZTVN6icu_7516DateIntervalInfoE, i32 0, i32 0, i32 2), ptr %this1, align 8
  %fFallbackIntervalPattern = getelementptr inbounds %"class.icu_75::DateIntervalInfo", ptr %this1, i32 0, i32 1
  invoke void @_ZN6icu_7513UnicodeStringC1EPKDs(ptr noundef nonnull align 8 dereferenceable(64) %fFallbackIntervalPattern, ptr noundef @_ZN6icu_75L23gDefaultFallbackPatternE)
          to label %invoke.cont unwind label %lpad

invoke.cont:                                      ; preds = %entry
  %fFirstDateInPtnIsLaterDate = getelementptr inbounds %"class.icu_75::DateIntervalInfo", ptr %this1, i32 0, i32 2
  store i8 0, ptr %fFirstDateInPtnIsLaterDate, align 8
  %fIntervalPatterns = getelementptr inbounds %"class.icu_75::DateIntervalInfo", ptr %this1, i32 0, i32 3
  store ptr null, ptr %fIntervalPatterns, align 8
  %0 = load ptr, ptr %status.addr, align 8
  %call = invoke noundef ptr @_ZN6icu_7516DateIntervalInfo8initHashER10UErrorCode(ptr noundef nonnull align 8 dereferenceable(88) %this1, ptr noundef nonnull align 4 dereferenceable(4) %0)
          to label %invoke.cont3 unwind label %lpad2

invoke.cont3:                                     ; preds = %invoke.cont
  %fIntervalPatterns4 = getelementptr inbounds %"class.icu_75::DateIntervalInfo", ptr %this1, i32 0, i32 3
  store ptr %call, ptr %fIntervalPatterns4, align 8
  ret void

lpad:                                             ; preds = %entry
  %1 = landingpad { ptr, i32 }
          cleanup
  %2 = extractvalue { ptr, i32 } %1, 0
  store ptr %2, ptr %exn.slot, align 8
  %3 = extractvalue { ptr, i32 } %1, 1
  store i32 %3, ptr %ehselector.slot, align 4
  br label %ehcleanup

lpad2:                                            ; preds = %invoke.cont
  %4 = landingpad { ptr, i32 }
          cleanup
  %5 = extractvalue { ptr, i32 } %4, 0
  store ptr %5, ptr %exn.slot, align 8
  %6 = extractvalue { ptr, i32 } %4, 1
  store i32 %6, ptr %ehselector.slot, align 4
  call void @_ZN6icu_7513UnicodeStringD1Ev(ptr noundef nonnull align 8 dereferenceable(64) %fFallbackIntervalPattern) #9
  br label %ehcleanup

ehcleanup:                                        ; preds = %lpad2, %lpad
  call void @_ZN6icu_757UObjectD2Ev(ptr noundef nonnull align 8 dereferenceable(8) %this1) #9
  br label %eh.resume

eh.resume:                                        ; preds = %ehcleanup
  %exn = load ptr, ptr %exn.slot, align 8
  %sel = load i32, ptr %ehselector.slot, align 4
  %lpad.val = insertvalue { ptr, i32 } poison, ptr %exn, 0
  %lpad.val5 = insertvalue { ptr, i32 } %lpad.val, i32 %sel, 1
  resume { ptr, i32 } %lpad.val5
}